ARM GAS  /tmp/ccsLB2EZ.s 			page 1


   1              		.cpu cortex-m3
   2              		.arch armv7-m
   3              		.fpu softvfp
   4              		.eabi_attribute 20, 1
   5              		.eabi_attribute 21, 1
   6              		.eabi_attribute 23, 3
   7              		.eabi_attribute 24, 1
   8              		.eabi_attribute 25, 1
   9              		.eabi_attribute 26, 1
  10              		.eabi_attribute 30, 1
  11              		.eabi_attribute 34, 1
  12              		.eabi_attribute 18, 4
  13              		.file	"usbd_cdc_if.c"
  14              		.text
  15              	.Ltext0:
  16              		.cfi_sections	.debug_frame
  17              		.file 1 "USB_DEVICE/App/usbd_cdc_if.c"
  18              		.section	.text.CDC_DeInit_FS,"ax",%progbits
  19              		.align	1
  20              		.syntax unified
  21              		.thumb
  22              		.thumb_func
  24              	CDC_DeInit_FS:
  25              	.LFB69:
   1:USB_DEVICE/App/usbd_cdc_if.c **** /* USER CODE BEGIN Header */
   2:USB_DEVICE/App/usbd_cdc_if.c **** /**
   3:USB_DEVICE/App/usbd_cdc_if.c ****   ******************************************************************************
   4:USB_DEVICE/App/usbd_cdc_if.c ****   * @file           : usbd_cdc_if.c
   5:USB_DEVICE/App/usbd_cdc_if.c ****   * @version        : v2.0_Cube
   6:USB_DEVICE/App/usbd_cdc_if.c ****   * @brief          : Usb device for Virtual Com Port.
   7:USB_DEVICE/App/usbd_cdc_if.c ****   ******************************************************************************
   8:USB_DEVICE/App/usbd_cdc_if.c ****   * @attention
   9:USB_DEVICE/App/usbd_cdc_if.c ****   *
  10:USB_DEVICE/App/usbd_cdc_if.c ****   * Copyright (c) 2023 STMicroelectronics.
  11:USB_DEVICE/App/usbd_cdc_if.c ****   * All rights reserved.
  12:USB_DEVICE/App/usbd_cdc_if.c ****   *
  13:USB_DEVICE/App/usbd_cdc_if.c ****   * This software is licensed under terms that can be found in the LICENSE file
  14:USB_DEVICE/App/usbd_cdc_if.c ****   * in the root directory of this software component.
  15:USB_DEVICE/App/usbd_cdc_if.c ****   * If no LICENSE file comes with this software, it is provided AS-IS.
  16:USB_DEVICE/App/usbd_cdc_if.c ****   *
  17:USB_DEVICE/App/usbd_cdc_if.c ****   ******************************************************************************
  18:USB_DEVICE/App/usbd_cdc_if.c ****   */
  19:USB_DEVICE/App/usbd_cdc_if.c **** /* USER CODE END Header */
  20:USB_DEVICE/App/usbd_cdc_if.c **** 
  21:USB_DEVICE/App/usbd_cdc_if.c **** /* Includes ------------------------------------------------------------------*/
  22:USB_DEVICE/App/usbd_cdc_if.c **** #include "usbd_cdc_if.h"
  23:USB_DEVICE/App/usbd_cdc_if.c **** 
  24:USB_DEVICE/App/usbd_cdc_if.c **** /* USER CODE BEGIN INCLUDE */
  25:USB_DEVICE/App/usbd_cdc_if.c **** #include "auto_park.h"
  26:USB_DEVICE/App/usbd_cdc_if.c **** 
  27:USB_DEVICE/App/usbd_cdc_if.c **** /* USER CODE END INCLUDE */
  28:USB_DEVICE/App/usbd_cdc_if.c **** 
  29:USB_DEVICE/App/usbd_cdc_if.c **** /* Private typedef -----------------------------------------------------------*/
  30:USB_DEVICE/App/usbd_cdc_if.c **** /* Private define ------------------------------------------------------------*/
  31:USB_DEVICE/App/usbd_cdc_if.c **** /* Private macro -------------------------------------------------------------*/
  32:USB_DEVICE/App/usbd_cdc_if.c **** 
  33:USB_DEVICE/App/usbd_cdc_if.c **** /* USER CODE BEGIN PV */
ARM GAS  /tmp/ccsLB2EZ.s 			page 2


  34:USB_DEVICE/App/usbd_cdc_if.c **** extern MACHINE machine;
  35:USB_DEVICE/App/usbd_cdc_if.c **** /* Private variables ---------------------------------------------------------*/
  36:USB_DEVICE/App/usbd_cdc_if.c **** 
  37:USB_DEVICE/App/usbd_cdc_if.c **** /* USER CODE END PV */
  38:USB_DEVICE/App/usbd_cdc_if.c **** 
  39:USB_DEVICE/App/usbd_cdc_if.c **** /** @addtogroup STM32_USB_OTG_DEVICE_LIBRARY
  40:USB_DEVICE/App/usbd_cdc_if.c ****   * @brief Usb device library.
  41:USB_DEVICE/App/usbd_cdc_if.c ****   * @{
  42:USB_DEVICE/App/usbd_cdc_if.c ****   */
  43:USB_DEVICE/App/usbd_cdc_if.c **** 
  44:USB_DEVICE/App/usbd_cdc_if.c **** /** @addtogroup USBD_CDC_IF
  45:USB_DEVICE/App/usbd_cdc_if.c ****   * @{
  46:USB_DEVICE/App/usbd_cdc_if.c ****   */
  47:USB_DEVICE/App/usbd_cdc_if.c **** 
  48:USB_DEVICE/App/usbd_cdc_if.c **** /** @defgroup USBD_CDC_IF_Private_TypesDefinitions USBD_CDC_IF_Private_TypesDefinitions
  49:USB_DEVICE/App/usbd_cdc_if.c ****   * @brief Private types.
  50:USB_DEVICE/App/usbd_cdc_if.c ****   * @{
  51:USB_DEVICE/App/usbd_cdc_if.c ****   */
  52:USB_DEVICE/App/usbd_cdc_if.c **** 
  53:USB_DEVICE/App/usbd_cdc_if.c **** /* USER CODE BEGIN PRIVATE_TYPES */
  54:USB_DEVICE/App/usbd_cdc_if.c **** 
  55:USB_DEVICE/App/usbd_cdc_if.c **** /* USER CODE END PRIVATE_TYPES */
  56:USB_DEVICE/App/usbd_cdc_if.c **** 
  57:USB_DEVICE/App/usbd_cdc_if.c **** /**
  58:USB_DEVICE/App/usbd_cdc_if.c ****   * @}
  59:USB_DEVICE/App/usbd_cdc_if.c ****   */
  60:USB_DEVICE/App/usbd_cdc_if.c **** 
  61:USB_DEVICE/App/usbd_cdc_if.c **** /** @defgroup USBD_CDC_IF_Private_Defines USBD_CDC_IF_Private_Defines
  62:USB_DEVICE/App/usbd_cdc_if.c ****   * @brief Private defines.
  63:USB_DEVICE/App/usbd_cdc_if.c ****   * @{
  64:USB_DEVICE/App/usbd_cdc_if.c ****   */
  65:USB_DEVICE/App/usbd_cdc_if.c **** 
  66:USB_DEVICE/App/usbd_cdc_if.c **** /* USER CODE BEGIN PRIVATE_DEFINES */
  67:USB_DEVICE/App/usbd_cdc_if.c **** /* USER CODE END PRIVATE_DEFINES */
  68:USB_DEVICE/App/usbd_cdc_if.c **** 
  69:USB_DEVICE/App/usbd_cdc_if.c **** /**
  70:USB_DEVICE/App/usbd_cdc_if.c ****   * @}
  71:USB_DEVICE/App/usbd_cdc_if.c ****   */
  72:USB_DEVICE/App/usbd_cdc_if.c **** 
  73:USB_DEVICE/App/usbd_cdc_if.c **** /** @defgroup USBD_CDC_IF_Private_Macros USBD_CDC_IF_Private_Macros
  74:USB_DEVICE/App/usbd_cdc_if.c ****   * @brief Private macros.
  75:USB_DEVICE/App/usbd_cdc_if.c ****   * @{
  76:USB_DEVICE/App/usbd_cdc_if.c ****   */
  77:USB_DEVICE/App/usbd_cdc_if.c **** 
  78:USB_DEVICE/App/usbd_cdc_if.c **** /* USER CODE BEGIN PRIVATE_MACRO */
  79:USB_DEVICE/App/usbd_cdc_if.c **** 
  80:USB_DEVICE/App/usbd_cdc_if.c **** /* USER CODE END PRIVATE_MACRO */
  81:USB_DEVICE/App/usbd_cdc_if.c **** 
  82:USB_DEVICE/App/usbd_cdc_if.c **** /**
  83:USB_DEVICE/App/usbd_cdc_if.c ****   * @}
  84:USB_DEVICE/App/usbd_cdc_if.c ****   */
  85:USB_DEVICE/App/usbd_cdc_if.c **** 
  86:USB_DEVICE/App/usbd_cdc_if.c **** /** @defgroup USBD_CDC_IF_Private_Variables USBD_CDC_IF_Private_Variables
  87:USB_DEVICE/App/usbd_cdc_if.c ****   * @brief Private variables.
  88:USB_DEVICE/App/usbd_cdc_if.c ****   * @{
  89:USB_DEVICE/App/usbd_cdc_if.c ****   */
  90:USB_DEVICE/App/usbd_cdc_if.c **** /* Create buffer for reception and transmission           */
ARM GAS  /tmp/ccsLB2EZ.s 			page 3


  91:USB_DEVICE/App/usbd_cdc_if.c **** /* It's up to user to redefine and/or remove those define */
  92:USB_DEVICE/App/usbd_cdc_if.c **** /** Received data over USB are stored in this buffer      */
  93:USB_DEVICE/App/usbd_cdc_if.c **** uint8_t UserRxBufferFS[APP_RX_DATA_SIZE];
  94:USB_DEVICE/App/usbd_cdc_if.c **** 
  95:USB_DEVICE/App/usbd_cdc_if.c **** /** Data to send over USB CDC are stored in this buffer   */
  96:USB_DEVICE/App/usbd_cdc_if.c **** uint8_t UserTxBufferFS[APP_TX_DATA_SIZE];
  97:USB_DEVICE/App/usbd_cdc_if.c **** 
  98:USB_DEVICE/App/usbd_cdc_if.c **** /* USER CODE BEGIN PRIVATE_VARIABLES */
  99:USB_DEVICE/App/usbd_cdc_if.c **** 
 100:USB_DEVICE/App/usbd_cdc_if.c **** /* USER CODE END PRIVATE_VARIABLES */
 101:USB_DEVICE/App/usbd_cdc_if.c **** 
 102:USB_DEVICE/App/usbd_cdc_if.c **** /**
 103:USB_DEVICE/App/usbd_cdc_if.c ****   * @}
 104:USB_DEVICE/App/usbd_cdc_if.c ****   */
 105:USB_DEVICE/App/usbd_cdc_if.c **** 
 106:USB_DEVICE/App/usbd_cdc_if.c **** /** @defgroup USBD_CDC_IF_Exported_Variables USBD_CDC_IF_Exported_Variables
 107:USB_DEVICE/App/usbd_cdc_if.c ****   * @brief Public variables.
 108:USB_DEVICE/App/usbd_cdc_if.c ****   * @{
 109:USB_DEVICE/App/usbd_cdc_if.c ****   */
 110:USB_DEVICE/App/usbd_cdc_if.c **** 
 111:USB_DEVICE/App/usbd_cdc_if.c **** extern USBD_HandleTypeDef hUsbDeviceFS;
 112:USB_DEVICE/App/usbd_cdc_if.c **** 
 113:USB_DEVICE/App/usbd_cdc_if.c **** /* USER CODE BEGIN EXPORTED_VARIABLES */
 114:USB_DEVICE/App/usbd_cdc_if.c **** 
 115:USB_DEVICE/App/usbd_cdc_if.c **** /* USER CODE END EXPORTED_VARIABLES */
 116:USB_DEVICE/App/usbd_cdc_if.c **** 
 117:USB_DEVICE/App/usbd_cdc_if.c **** /**
 118:USB_DEVICE/App/usbd_cdc_if.c ****   * @}
 119:USB_DEVICE/App/usbd_cdc_if.c ****   */
 120:USB_DEVICE/App/usbd_cdc_if.c **** 
 121:USB_DEVICE/App/usbd_cdc_if.c **** /** @defgroup USBD_CDC_IF_Private_FunctionPrototypes USBD_CDC_IF_Private_FunctionPrototypes
 122:USB_DEVICE/App/usbd_cdc_if.c ****   * @brief Private functions declaration.
 123:USB_DEVICE/App/usbd_cdc_if.c ****   * @{
 124:USB_DEVICE/App/usbd_cdc_if.c ****   */
 125:USB_DEVICE/App/usbd_cdc_if.c **** 
 126:USB_DEVICE/App/usbd_cdc_if.c **** static int8_t CDC_Init_FS(void);
 127:USB_DEVICE/App/usbd_cdc_if.c **** static int8_t CDC_DeInit_FS(void);
 128:USB_DEVICE/App/usbd_cdc_if.c **** static int8_t CDC_Control_FS(uint8_t cmd, uint8_t* pbuf, uint16_t length);
 129:USB_DEVICE/App/usbd_cdc_if.c **** static int8_t CDC_Receive_FS(uint8_t* pbuf, uint32_t *Len);
 130:USB_DEVICE/App/usbd_cdc_if.c **** 
 131:USB_DEVICE/App/usbd_cdc_if.c **** /* USER CODE BEGIN PRIVATE_FUNCTIONS_DECLARATION */
 132:USB_DEVICE/App/usbd_cdc_if.c **** 
 133:USB_DEVICE/App/usbd_cdc_if.c **** /* USER CODE END PRIVATE_FUNCTIONS_DECLARATION */
 134:USB_DEVICE/App/usbd_cdc_if.c **** 
 135:USB_DEVICE/App/usbd_cdc_if.c **** /**
 136:USB_DEVICE/App/usbd_cdc_if.c ****   * @}
 137:USB_DEVICE/App/usbd_cdc_if.c ****   */
 138:USB_DEVICE/App/usbd_cdc_if.c **** 
 139:USB_DEVICE/App/usbd_cdc_if.c **** USBD_CDC_ItfTypeDef USBD_Interface_fops_FS =
 140:USB_DEVICE/App/usbd_cdc_if.c **** {
 141:USB_DEVICE/App/usbd_cdc_if.c ****   CDC_Init_FS,
 142:USB_DEVICE/App/usbd_cdc_if.c ****   CDC_DeInit_FS,
 143:USB_DEVICE/App/usbd_cdc_if.c ****   CDC_Control_FS,
 144:USB_DEVICE/App/usbd_cdc_if.c ****   CDC_Receive_FS
 145:USB_DEVICE/App/usbd_cdc_if.c **** };
 146:USB_DEVICE/App/usbd_cdc_if.c **** 
 147:USB_DEVICE/App/usbd_cdc_if.c **** /* Private functions ---------------------------------------------------------*/
ARM GAS  /tmp/ccsLB2EZ.s 			page 4


 148:USB_DEVICE/App/usbd_cdc_if.c **** /**
 149:USB_DEVICE/App/usbd_cdc_if.c ****   * @brief  Initializes the CDC media low layer over the FS USB IP
 150:USB_DEVICE/App/usbd_cdc_if.c ****   * @retval USBD_OK if all operations are OK else USBD_FAIL
 151:USB_DEVICE/App/usbd_cdc_if.c ****   */
 152:USB_DEVICE/App/usbd_cdc_if.c **** static int8_t CDC_Init_FS(void)
 153:USB_DEVICE/App/usbd_cdc_if.c **** {
 154:USB_DEVICE/App/usbd_cdc_if.c ****   /* USER CODE BEGIN 3 */
 155:USB_DEVICE/App/usbd_cdc_if.c ****   /* Set Application Buffers */
 156:USB_DEVICE/App/usbd_cdc_if.c ****   USBD_CDC_SetTxBuffer(&hUsbDeviceFS, UserTxBufferFS, 0);
 157:USB_DEVICE/App/usbd_cdc_if.c ****   USBD_CDC_SetRxBuffer(&hUsbDeviceFS, UserRxBufferFS);
 158:USB_DEVICE/App/usbd_cdc_if.c ****   return (USBD_OK);
 159:USB_DEVICE/App/usbd_cdc_if.c ****   /* USER CODE END 3 */
 160:USB_DEVICE/App/usbd_cdc_if.c **** }
 161:USB_DEVICE/App/usbd_cdc_if.c **** 
 162:USB_DEVICE/App/usbd_cdc_if.c **** /**
 163:USB_DEVICE/App/usbd_cdc_if.c ****   * @brief  DeInitializes the CDC media low layer
 164:USB_DEVICE/App/usbd_cdc_if.c ****   * @retval USBD_OK if all operations are OK else USBD_FAIL
 165:USB_DEVICE/App/usbd_cdc_if.c ****   */
 166:USB_DEVICE/App/usbd_cdc_if.c **** static int8_t CDC_DeInit_FS(void)
 167:USB_DEVICE/App/usbd_cdc_if.c **** {
  26              		.loc 1 167 1 view -0
  27              		.cfi_startproc
  28              		@ args = 0, pretend = 0, frame = 0
  29              		@ frame_needed = 0, uses_anonymous_args = 0
  30              		@ link register save eliminated.
 168:USB_DEVICE/App/usbd_cdc_if.c ****   /* USER CODE BEGIN 4 */
 169:USB_DEVICE/App/usbd_cdc_if.c ****   return (USBD_OK);
  31              		.loc 1 169 3 view .LVU1
 170:USB_DEVICE/App/usbd_cdc_if.c ****   /* USER CODE END 4 */
 171:USB_DEVICE/App/usbd_cdc_if.c **** }
  32              		.loc 1 171 1 is_stmt 0 view .LVU2
  33 0000 0020     		movs	r0, #0
  34 0002 7047     		bx	lr
  35              		.cfi_endproc
  36              	.LFE69:
  38              		.section	.text.CDC_Control_FS,"ax",%progbits
  39              		.align	1
  40              		.syntax unified
  41              		.thumb
  42              		.thumb_func
  44              	CDC_Control_FS:
  45              	.LVL0:
  46              	.LFB70:
 172:USB_DEVICE/App/usbd_cdc_if.c **** 
 173:USB_DEVICE/App/usbd_cdc_if.c **** /**
 174:USB_DEVICE/App/usbd_cdc_if.c ****   * @brief  Manage the CDC class requests
 175:USB_DEVICE/App/usbd_cdc_if.c ****   * @param  cmd: Command code
 176:USB_DEVICE/App/usbd_cdc_if.c ****   * @param  pbuf: Buffer containing command data (request parameters)
 177:USB_DEVICE/App/usbd_cdc_if.c ****   * @param  length: Number of data to be sent (in bytes)
 178:USB_DEVICE/App/usbd_cdc_if.c ****   * @retval Result of the operation: USBD_OK if all operations are OK else USBD_FAIL
 179:USB_DEVICE/App/usbd_cdc_if.c ****   */
 180:USB_DEVICE/App/usbd_cdc_if.c **** static int8_t CDC_Control_FS(uint8_t cmd, uint8_t* pbuf, uint16_t length)
 181:USB_DEVICE/App/usbd_cdc_if.c **** {
  47              		.loc 1 181 1 is_stmt 1 view -0
  48              		.cfi_startproc
  49              		@ args = 0, pretend = 0, frame = 0
  50              		@ frame_needed = 0, uses_anonymous_args = 0
ARM GAS  /tmp/ccsLB2EZ.s 			page 5


  51              		@ link register save eliminated.
 182:USB_DEVICE/App/usbd_cdc_if.c ****   /* USER CODE BEGIN 5 */
 183:USB_DEVICE/App/usbd_cdc_if.c ****   switch(cmd)
  52              		.loc 1 183 3 view .LVU4
 184:USB_DEVICE/App/usbd_cdc_if.c ****   {
 185:USB_DEVICE/App/usbd_cdc_if.c ****     case CDC_SEND_ENCAPSULATED_COMMAND:
 186:USB_DEVICE/App/usbd_cdc_if.c **** 
 187:USB_DEVICE/App/usbd_cdc_if.c ****     break;
 188:USB_DEVICE/App/usbd_cdc_if.c **** 
 189:USB_DEVICE/App/usbd_cdc_if.c ****     case CDC_GET_ENCAPSULATED_RESPONSE:
 190:USB_DEVICE/App/usbd_cdc_if.c **** 
 191:USB_DEVICE/App/usbd_cdc_if.c ****     break;
 192:USB_DEVICE/App/usbd_cdc_if.c **** 
 193:USB_DEVICE/App/usbd_cdc_if.c ****     case CDC_SET_COMM_FEATURE:
 194:USB_DEVICE/App/usbd_cdc_if.c **** 
 195:USB_DEVICE/App/usbd_cdc_if.c ****     break;
 196:USB_DEVICE/App/usbd_cdc_if.c **** 
 197:USB_DEVICE/App/usbd_cdc_if.c ****     case CDC_GET_COMM_FEATURE:
 198:USB_DEVICE/App/usbd_cdc_if.c **** 
 199:USB_DEVICE/App/usbd_cdc_if.c ****     break;
 200:USB_DEVICE/App/usbd_cdc_if.c **** 
 201:USB_DEVICE/App/usbd_cdc_if.c ****     case CDC_CLEAR_COMM_FEATURE:
 202:USB_DEVICE/App/usbd_cdc_if.c **** 
 203:USB_DEVICE/App/usbd_cdc_if.c ****     break;
 204:USB_DEVICE/App/usbd_cdc_if.c **** 
 205:USB_DEVICE/App/usbd_cdc_if.c ****   /*******************************************************************************/
 206:USB_DEVICE/App/usbd_cdc_if.c ****   /* Line Coding Structure                                                       */
 207:USB_DEVICE/App/usbd_cdc_if.c ****   /*-----------------------------------------------------------------------------*/
 208:USB_DEVICE/App/usbd_cdc_if.c ****   /* Offset | Field       | Size | Value  | Description                          */
 209:USB_DEVICE/App/usbd_cdc_if.c ****   /* 0      | dwDTERate   |   4  | Number |Data terminal rate, in bits per second*/
 210:USB_DEVICE/App/usbd_cdc_if.c ****   /* 4      | bCharFormat |   1  | Number | Stop bits                            */
 211:USB_DEVICE/App/usbd_cdc_if.c ****   /*                                        0 - 1 Stop bit                       */
 212:USB_DEVICE/App/usbd_cdc_if.c ****   /*                                        1 - 1.5 Stop bits                    */
 213:USB_DEVICE/App/usbd_cdc_if.c ****   /*                                        2 - 2 Stop bits                      */
 214:USB_DEVICE/App/usbd_cdc_if.c ****   /* 5      | bParityType |  1   | Number | Parity                               */
 215:USB_DEVICE/App/usbd_cdc_if.c ****   /*                                        0 - None                             */
 216:USB_DEVICE/App/usbd_cdc_if.c ****   /*                                        1 - Odd                              */
 217:USB_DEVICE/App/usbd_cdc_if.c ****   /*                                        2 - Even                             */
 218:USB_DEVICE/App/usbd_cdc_if.c ****   /*                                        3 - Mark                             */
 219:USB_DEVICE/App/usbd_cdc_if.c ****   /*                                        4 - Space                            */
 220:USB_DEVICE/App/usbd_cdc_if.c ****   /* 6      | bDataBits  |   1   | Number Data bits (5, 6, 7, 8 or 16).          */
 221:USB_DEVICE/App/usbd_cdc_if.c ****   /*******************************************************************************/
 222:USB_DEVICE/App/usbd_cdc_if.c ****     case CDC_SET_LINE_CODING:
 223:USB_DEVICE/App/usbd_cdc_if.c **** 
 224:USB_DEVICE/App/usbd_cdc_if.c ****     break;
 225:USB_DEVICE/App/usbd_cdc_if.c **** 
 226:USB_DEVICE/App/usbd_cdc_if.c ****     case CDC_GET_LINE_CODING:
 227:USB_DEVICE/App/usbd_cdc_if.c **** 
 228:USB_DEVICE/App/usbd_cdc_if.c ****     break;
 229:USB_DEVICE/App/usbd_cdc_if.c **** 
 230:USB_DEVICE/App/usbd_cdc_if.c ****     case CDC_SET_CONTROL_LINE_STATE:
 231:USB_DEVICE/App/usbd_cdc_if.c **** 
 232:USB_DEVICE/App/usbd_cdc_if.c ****     break;
 233:USB_DEVICE/App/usbd_cdc_if.c **** 
 234:USB_DEVICE/App/usbd_cdc_if.c ****     case CDC_SEND_BREAK:
 235:USB_DEVICE/App/usbd_cdc_if.c **** 
 236:USB_DEVICE/App/usbd_cdc_if.c ****     break;
ARM GAS  /tmp/ccsLB2EZ.s 			page 6


 237:USB_DEVICE/App/usbd_cdc_if.c **** 
 238:USB_DEVICE/App/usbd_cdc_if.c ****   default:
 239:USB_DEVICE/App/usbd_cdc_if.c ****     break;
  53              		.loc 1 239 5 view .LVU5
 240:USB_DEVICE/App/usbd_cdc_if.c ****   }
 241:USB_DEVICE/App/usbd_cdc_if.c **** 
 242:USB_DEVICE/App/usbd_cdc_if.c ****   return (USBD_OK);
  54              		.loc 1 242 3 view .LVU6
 243:USB_DEVICE/App/usbd_cdc_if.c ****   /* USER CODE END 5 */
 244:USB_DEVICE/App/usbd_cdc_if.c **** }
  55              		.loc 1 244 1 is_stmt 0 view .LVU7
  56 0000 0020     		movs	r0, #0
  57              	.LVL1:
  58              		.loc 1 244 1 view .LVU8
  59 0002 7047     		bx	lr
  60              		.cfi_endproc
  61              	.LFE70:
  63              		.section	.text.CDC_Receive_FS,"ax",%progbits
  64              		.align	1
  65              		.syntax unified
  66              		.thumb
  67              		.thumb_func
  69              	CDC_Receive_FS:
  70              	.LVL2:
  71              	.LFB71:
 245:USB_DEVICE/App/usbd_cdc_if.c **** 
 246:USB_DEVICE/App/usbd_cdc_if.c **** /**
 247:USB_DEVICE/App/usbd_cdc_if.c ****   * @brief  Data received over USB OUT endpoint are sent over CDC interface
 248:USB_DEVICE/App/usbd_cdc_if.c ****   *         through this function.
 249:USB_DEVICE/App/usbd_cdc_if.c ****   *
 250:USB_DEVICE/App/usbd_cdc_if.c ****   *         @note
 251:USB_DEVICE/App/usbd_cdc_if.c ****   *         This function will issue a NAK packet on any OUT packet received on
 252:USB_DEVICE/App/usbd_cdc_if.c ****   *         USB endpoint until exiting this function. If you exit this function
 253:USB_DEVICE/App/usbd_cdc_if.c ****   *         before transfer is complete on CDC interface (ie. using DMA controller)
 254:USB_DEVICE/App/usbd_cdc_if.c ****   *         it will result in receiving more data while previous ones are still
 255:USB_DEVICE/App/usbd_cdc_if.c ****   *         not sent.
 256:USB_DEVICE/App/usbd_cdc_if.c ****   *
 257:USB_DEVICE/App/usbd_cdc_if.c ****   * @param  Buf: Buffer of data to be received
 258:USB_DEVICE/App/usbd_cdc_if.c ****   * @param  Len: Number of data received (in bytes)
 259:USB_DEVICE/App/usbd_cdc_if.c ****   * @retval Result of the operation: USBD_OK if all operations are OK else USBD_FAIL
 260:USB_DEVICE/App/usbd_cdc_if.c ****   */
 261:USB_DEVICE/App/usbd_cdc_if.c **** static int8_t CDC_Receive_FS(uint8_t* Buf, uint32_t *Len)
 262:USB_DEVICE/App/usbd_cdc_if.c **** {
  72              		.loc 1 262 1 is_stmt 1 view -0
  73              		.cfi_startproc
  74              		@ args = 0, pretend = 0, frame = 0
  75              		@ frame_needed = 0, uses_anonymous_args = 0
  76              		.loc 1 262 1 is_stmt 0 view .LVU10
  77 0000 10B5     		push	{r4, lr}
  78              	.LCFI0:
  79              		.cfi_def_cfa_offset 8
  80              		.cfi_offset 4, -8
  81              		.cfi_offset 14, -4
  82 0002 0146     		mov	r1, r0
  83              	.LVL3:
 263:USB_DEVICE/App/usbd_cdc_if.c ****   /* USER CODE BEGIN 6 */
 264:USB_DEVICE/App/usbd_cdc_if.c ****   USBD_CDC_SetRxBuffer(&hUsbDeviceFS, &Buf[0]);
ARM GAS  /tmp/ccsLB2EZ.s 			page 7


  84              		.loc 1 264 3 is_stmt 1 view .LVU11
  85 0004 0C4C     		ldr	r4, .L7
  86 0006 2046     		mov	r0, r4
  87              	.LVL4:
  88              		.loc 1 264 3 is_stmt 0 view .LVU12
  89 0008 FFF7FEFF 		bl	USBD_CDC_SetRxBuffer
  90              	.LVL5:
 265:USB_DEVICE/App/usbd_cdc_if.c ****   USBD_CDC_ReceivePacket(&hUsbDeviceFS);
  91              		.loc 1 265 3 is_stmt 1 view .LVU13
  92 000c 2046     		mov	r0, r4
  93 000e FFF7FEFF 		bl	USBD_CDC_ReceivePacket
  94              	.LVL6:
 266:USB_DEVICE/App/usbd_cdc_if.c ****   //CDC_Transmit_FS(UserRxBufferFS, strlen((const char*)UserRxBufferFS));
 267:USB_DEVICE/App/usbd_cdc_if.c ****   for (int i = 0; i < APP_RX_DATA_SIZE; i++)
  95              		.loc 1 267 3 view .LVU14
  96              	.LBB2:
  97              		.loc 1 267 8 view .LVU15
  98              		.loc 1 267 12 is_stmt 0 view .LVU16
  99 0012 0023     		movs	r3, #0
 100              		.loc 1 267 3 view .LVU17
 101 0014 08E0     		b	.L4
 102              	.LVL7:
 103              	.L5:
 268:USB_DEVICE/App/usbd_cdc_if.c ****   {
 269:USB_DEVICE/App/usbd_cdc_if.c **** 	  machine.cdc.receive[i] = UserRxBufferFS[i];
 104              		.loc 1 269 4 is_stmt 1 view .LVU18
 105              		.loc 1 269 43 is_stmt 0 view .LVU19
 106 0016 0949     		ldr	r1, .L7+4
 107 0018 C85C     		ldrb	r0, [r1, r3]	@ zero_extendqisi2
 108              		.loc 1 269 27 view .LVU20
 109 001a 094A     		ldr	r2, .L7+8
 110 001c 1A44     		add	r2, r2, r3
 111 001e 82F8E400 		strb	r0, [r2, #228]
 270:USB_DEVICE/App/usbd_cdc_if.c **** 	  UserRxBufferFS[i] = 0;
 112              		.loc 1 270 4 is_stmt 1 view .LVU21
 113              		.loc 1 270 22 is_stmt 0 view .LVU22
 114 0022 0022     		movs	r2, #0
 115 0024 CA54     		strb	r2, [r1, r3]
 267:USB_DEVICE/App/usbd_cdc_if.c ****   {
 116              		.loc 1 267 42 is_stmt 1 discriminator 3 view .LVU23
 117 0026 0133     		adds	r3, r3, #1
 118              	.LVL8:
 119              	.L4:
 267:USB_DEVICE/App/usbd_cdc_if.c ****   {
 120              		.loc 1 267 21 discriminator 1 view .LVU24
 121 0028 3F2B     		cmp	r3, #63
 122 002a F4DD     		ble	.L5
 123              	.LBE2:
 271:USB_DEVICE/App/usbd_cdc_if.c ****   }
 272:USB_DEVICE/App/usbd_cdc_if.c ****   process_data(&machine);
 124              		.loc 1 272 3 view .LVU25
 125 002c 0448     		ldr	r0, .L7+8
 126 002e FFF7FEFF 		bl	process_data
 127              	.LVL9:
 273:USB_DEVICE/App/usbd_cdc_if.c ****   return (USBD_OK);
 128              		.loc 1 273 3 view .LVU26
 274:USB_DEVICE/App/usbd_cdc_if.c ****   /* USER CODE END 6 */
ARM GAS  /tmp/ccsLB2EZ.s 			page 8


 275:USB_DEVICE/App/usbd_cdc_if.c **** }
 129              		.loc 1 275 1 is_stmt 0 view .LVU27
 130 0032 0020     		movs	r0, #0
 131 0034 10BD     		pop	{r4, pc}
 132              	.L8:
 133 0036 00BF     		.align	2
 134              	.L7:
 135 0038 00000000 		.word	hUsbDeviceFS
 136 003c 00000000 		.word	UserRxBufferFS
 137 0040 00000000 		.word	machine
 138              		.cfi_endproc
 139              	.LFE71:
 141              		.section	.text.CDC_Init_FS,"ax",%progbits
 142              		.align	1
 143              		.syntax unified
 144              		.thumb
 145              		.thumb_func
 147              	CDC_Init_FS:
 148              	.LFB68:
 153:USB_DEVICE/App/usbd_cdc_if.c ****   /* USER CODE BEGIN 3 */
 149              		.loc 1 153 1 is_stmt 1 view -0
 150              		.cfi_startproc
 151              		@ args = 0, pretend = 0, frame = 0
 152              		@ frame_needed = 0, uses_anonymous_args = 0
 153 0000 10B5     		push	{r4, lr}
 154              	.LCFI1:
 155              		.cfi_def_cfa_offset 8
 156              		.cfi_offset 4, -8
 157              		.cfi_offset 14, -4
 156:USB_DEVICE/App/usbd_cdc_if.c ****   USBD_CDC_SetRxBuffer(&hUsbDeviceFS, UserRxBufferFS);
 158              		.loc 1 156 3 view .LVU29
 159 0002 064C     		ldr	r4, .L11
 160 0004 0022     		movs	r2, #0
 161 0006 0649     		ldr	r1, .L11+4
 162 0008 2046     		mov	r0, r4
 163 000a FFF7FEFF 		bl	USBD_CDC_SetTxBuffer
 164              	.LVL10:
 157:USB_DEVICE/App/usbd_cdc_if.c ****   return (USBD_OK);
 165              		.loc 1 157 3 view .LVU30
 166 000e 0549     		ldr	r1, .L11+8
 167 0010 2046     		mov	r0, r4
 168 0012 FFF7FEFF 		bl	USBD_CDC_SetRxBuffer
 169              	.LVL11:
 158:USB_DEVICE/App/usbd_cdc_if.c ****   /* USER CODE END 3 */
 170              		.loc 1 158 3 view .LVU31
 160:USB_DEVICE/App/usbd_cdc_if.c **** 
 171              		.loc 1 160 1 is_stmt 0 view .LVU32
 172 0016 0020     		movs	r0, #0
 173 0018 10BD     		pop	{r4, pc}
 174              	.L12:
 175 001a 00BF     		.align	2
 176              	.L11:
 177 001c 00000000 		.word	hUsbDeviceFS
 178 0020 00000000 		.word	UserTxBufferFS
 179 0024 00000000 		.word	UserRxBufferFS
 180              		.cfi_endproc
 181              	.LFE68:
ARM GAS  /tmp/ccsLB2EZ.s 			page 9


 183              		.section	.text.CDC_Transmit_FS,"ax",%progbits
 184              		.align	1
 185              		.global	CDC_Transmit_FS
 186              		.syntax unified
 187              		.thumb
 188              		.thumb_func
 190              	CDC_Transmit_FS:
 191              	.LVL12:
 192              	.LFB72:
 276:USB_DEVICE/App/usbd_cdc_if.c **** 
 277:USB_DEVICE/App/usbd_cdc_if.c **** /**
 278:USB_DEVICE/App/usbd_cdc_if.c ****   * @brief  CDC_Transmit_FS
 279:USB_DEVICE/App/usbd_cdc_if.c ****   *         Data to send over USB IN endpoint are sent over CDC interface
 280:USB_DEVICE/App/usbd_cdc_if.c ****   *         through this function.
 281:USB_DEVICE/App/usbd_cdc_if.c ****   *         @note
 282:USB_DEVICE/App/usbd_cdc_if.c ****   *
 283:USB_DEVICE/App/usbd_cdc_if.c ****   *
 284:USB_DEVICE/App/usbd_cdc_if.c ****   * @param  Buf: Buffer of data to be sent
 285:USB_DEVICE/App/usbd_cdc_if.c ****   * @param  Len: Number of data to be sent (in bytes)
 286:USB_DEVICE/App/usbd_cdc_if.c ****   * @retval USBD_OK if all operations are OK else USBD_FAIL or USBD_BUSY
 287:USB_DEVICE/App/usbd_cdc_if.c ****   */
 288:USB_DEVICE/App/usbd_cdc_if.c **** uint8_t CDC_Transmit_FS(uint8_t* Buf, uint16_t Len)
 289:USB_DEVICE/App/usbd_cdc_if.c **** {
 193              		.loc 1 289 1 is_stmt 1 view -0
 194              		.cfi_startproc
 195              		@ args = 0, pretend = 0, frame = 0
 196              		@ frame_needed = 0, uses_anonymous_args = 0
 290:USB_DEVICE/App/usbd_cdc_if.c ****   uint8_t result = USBD_OK;
 197              		.loc 1 290 3 view .LVU34
 291:USB_DEVICE/App/usbd_cdc_if.c ****   /* USER CODE BEGIN 7 */
 292:USB_DEVICE/App/usbd_cdc_if.c ****   USBD_CDC_HandleTypeDef *hcdc = (USBD_CDC_HandleTypeDef*)hUsbDeviceFS.pClassData;
 198              		.loc 1 292 3 view .LVU35
 199              		.loc 1 292 27 is_stmt 0 view .LVU36
 200 0000 094B     		ldr	r3, .L21
 201 0002 D3F8B832 		ldr	r3, [r3, #696]
 202              	.LVL13:
 293:USB_DEVICE/App/usbd_cdc_if.c ****   if (hcdc->TxState != 0){
 203              		.loc 1 293 3 is_stmt 1 view .LVU37
 204              		.loc 1 293 11 is_stmt 0 view .LVU38
 205 0006 D3F81432 		ldr	r3, [r3, #532]
 206              	.LVL14:
 207              		.loc 1 293 6 view .LVU39
 208 000a 0BB1     		cbz	r3, .L20
 294:USB_DEVICE/App/usbd_cdc_if.c ****     return USBD_BUSY;
 209              		.loc 1 294 12 view .LVU40
 210 000c 0120     		movs	r0, #1
 211              	.LVL15:
 295:USB_DEVICE/App/usbd_cdc_if.c ****   }
 296:USB_DEVICE/App/usbd_cdc_if.c ****   USBD_CDC_SetTxBuffer(&hUsbDeviceFS, Buf, Len);
 297:USB_DEVICE/App/usbd_cdc_if.c ****   result = USBD_CDC_TransmitPacket(&hUsbDeviceFS);
 298:USB_DEVICE/App/usbd_cdc_if.c ****   /* USER CODE END 7 */
 299:USB_DEVICE/App/usbd_cdc_if.c ****   return result;
 300:USB_DEVICE/App/usbd_cdc_if.c **** }
 212              		.loc 1 300 1 view .LVU41
 213 000e 7047     		bx	lr
 214              	.LVL16:
 215              	.L20:
ARM GAS  /tmp/ccsLB2EZ.s 			page 10


 289:USB_DEVICE/App/usbd_cdc_if.c ****   uint8_t result = USBD_OK;
 216              		.loc 1 289 1 view .LVU42
 217 0010 10B5     		push	{r4, lr}
 218              	.LCFI2:
 219              		.cfi_def_cfa_offset 8
 220              		.cfi_offset 4, -8
 221              		.cfi_offset 14, -4
 296:USB_DEVICE/App/usbd_cdc_if.c ****   result = USBD_CDC_TransmitPacket(&hUsbDeviceFS);
 222              		.loc 1 296 3 is_stmt 1 view .LVU43
 223 0012 054C     		ldr	r4, .L21
 224              	.LVL17:
 296:USB_DEVICE/App/usbd_cdc_if.c ****   result = USBD_CDC_TransmitPacket(&hUsbDeviceFS);
 225              		.loc 1 296 3 is_stmt 0 view .LVU44
 226 0014 0A46     		mov	r2, r1
 227 0016 0146     		mov	r1, r0
 228              	.LVL18:
 296:USB_DEVICE/App/usbd_cdc_if.c ****   result = USBD_CDC_TransmitPacket(&hUsbDeviceFS);
 229              		.loc 1 296 3 view .LVU45
 230 0018 2046     		mov	r0, r4
 231              	.LVL19:
 296:USB_DEVICE/App/usbd_cdc_if.c ****   result = USBD_CDC_TransmitPacket(&hUsbDeviceFS);
 232              		.loc 1 296 3 view .LVU46
 233 001a FFF7FEFF 		bl	USBD_CDC_SetTxBuffer
 234              	.LVL20:
 297:USB_DEVICE/App/usbd_cdc_if.c ****   /* USER CODE END 7 */
 235              		.loc 1 297 3 is_stmt 1 view .LVU47
 297:USB_DEVICE/App/usbd_cdc_if.c ****   /* USER CODE END 7 */
 236              		.loc 1 297 12 is_stmt 0 view .LVU48
 237 001e 2046     		mov	r0, r4
 238 0020 FFF7FEFF 		bl	USBD_CDC_TransmitPacket
 239              	.LVL21:
 299:USB_DEVICE/App/usbd_cdc_if.c **** }
 240              		.loc 1 299 3 is_stmt 1 view .LVU49
 241              		.loc 1 300 1 is_stmt 0 view .LVU50
 242 0024 10BD     		pop	{r4, pc}
 243              	.L22:
 244 0026 00BF     		.align	2
 245              	.L21:
 246 0028 00000000 		.word	hUsbDeviceFS
 247              		.cfi_endproc
 248              	.LFE72:
 250              		.global	USBD_Interface_fops_FS
 251              		.section	.data.USBD_Interface_fops_FS,"aw"
 252              		.align	2
 255              	USBD_Interface_fops_FS:
 256 0000 00000000 		.word	CDC_Init_FS
 257 0004 00000000 		.word	CDC_DeInit_FS
 258 0008 00000000 		.word	CDC_Control_FS
 259 000c 00000000 		.word	CDC_Receive_FS
 260              		.global	UserTxBufferFS
 261              		.section	.bss.UserTxBufferFS,"aw",%nobits
 262              		.align	2
 265              	UserTxBufferFS:
 266 0000 00000000 		.space	64
 266      00000000 
 266      00000000 
 266      00000000 
ARM GAS  /tmp/ccsLB2EZ.s 			page 11


 266      00000000 
 267              		.global	UserRxBufferFS
 268              		.section	.bss.UserRxBufferFS,"aw",%nobits
 269              		.align	2
 272              	UserRxBufferFS:
 273 0000 00000000 		.space	64
 273      00000000 
 273      00000000 
 273      00000000 
 273      00000000 
 274              		.text
 275              	.Letext0:
 276              		.file 2 "/usr/arm-none-eabi/include/machine/_default_types.h"
 277              		.file 3 "/usr/arm-none-eabi/include/sys/_stdint.h"
 278              		.file 4 "Drivers/CMSIS/Device/ST/STM32F1xx/Include/stm32f103xb.h"
 279              		.file 5 "Drivers/STM32F1xx_HAL_Driver/Inc/stm32f1xx_hal_def.h"
 280              		.file 6 "Drivers/STM32F1xx_HAL_Driver/Inc/stm32f1xx_hal_dma.h"
 281              		.file 7 "Drivers/STM32F1xx_HAL_Driver/Inc/stm32f1xx_hal_tim.h"
 282              		.file 8 "Middlewares/ST/STM32_USB_Device_Library/Core/Inc/usbd_def.h"
 283              		.file 9 "Middlewares/ST/STM32_USB_Device_Library/Class/CDC/Inc/usbd_cdc.h"
 284              		.file 10 "lib/auto_park.h"
 285              		.file 11 "USB_DEVICE/App/usbd_cdc_if.h"
ARM GAS  /tmp/ccsLB2EZ.s 			page 12

